target datalayout = "e-m:e-p270:32:32-p271:32:32-p272:64:64-i64:64-i128:128-f80:128-n8:16:32:64-S128"
target triple = "x86_64-pc-linux-gnu"

%"class.std::__cxx11::basic_string" = type { %"struct.std::__cxx11::basic_string<char>::_Alloc_hider", i64, %union.anon }
%"struct.std::__cxx11::basic_string<char>::_Alloc_hider" = type { ptr }
%union.anon = type { i64, [8 x i8] }

@_ZTISt13runtime_error = external constant ptr
@_ZL6cErrorB5cxx11 = internal global %"class.std::__cxx11::basic_string" zeroinitializer, align 8

; Function Attrs: mustprogress uwtable
define i64 @opencc_convert_utf8_to_buffer(ptr noundef %0, ptr noundef %1, i64 noundef %2, ptr noundef %3) #3 personality ptr @__gxx_personality_v0 {
  %5 = alloca i64, align 8
  %6 = alloca ptr, align 8
  %7 = alloca ptr, align 8
  %8 = alloca i64, align 8
  %9 = alloca ptr, align 8
  %10 = alloca ptr, align 8
  %11 = alloca ptr, align 8
  %12 = alloca i32, align 4
  %13 = alloca ptr, align 8
  store ptr %0, ptr %6, align 8, !tbaa !33
  store ptr %1, ptr %7, align 8, !tbaa !10
  store i64 %2, ptr %8, align 8, !tbaa !29
  store ptr %3, ptr %9, align 8, !tbaa !10
  call void @llvm.lifetime.start.p0(i64 8, ptr %10) #4
  %14 = load ptr, ptr %6, align 8, !tbaa !33
  store ptr %14, ptr %10, align 8, !tbaa !12
  %15 = load ptr, ptr %10, align 8, !tbaa !12
  %16 = load ptr, ptr %7, align 8, !tbaa !10
  %17 = load i64, ptr %8, align 8, !tbaa !29
  %18 = load ptr, ptr %9, align 8, !tbaa !10
  %19 = invoke noundef i64 @_ZNK6opencc15SimpleConverter7ConvertEPKcmPc(ptr noundef nonnull align 8 dereferenceable(8) %15, ptr noundef %16, i64 noundef %17, ptr noundef %18)
          to label %20 unwind label %21

20:                                               ; preds = %4
  store i64 %19, ptr %5, align 8
  call void @llvm.lifetime.end.p0(i64 8, ptr %10) #4
  br label %45

21:                                               ; preds = %4
  %22 = landingpad { ptr, i32 }
          cleanup
          catch ptr @_ZTISt13runtime_error
  %23 = extractvalue { ptr, i32 } %22, 0
  store ptr %23, ptr %11, align 8
  %24 = extractvalue { ptr, i32 } %22, 1
  store i32 %24, ptr %12, align 4
  call void @llvm.lifetime.end.p0(i64 8, ptr %10) #4
  br label %25

25:                                               ; preds = %21
  %26 = load i32, ptr %12, align 4
  %27 = call i32 @llvm.eh.typeid.for.p0(ptr @_ZTISt13runtime_error) #4
  %28 = icmp eq i32 %26, %27
  br i1 %28, label %29, label %47

29:                                               ; preds = %25
  call void @llvm.lifetime.start.p0(i64 8, ptr %13) #4
  %30 = load ptr, ptr %11, align 8
  %31 = call ptr @__cxa_begin_catch(ptr %30) #4
  store ptr %31, ptr %13, align 8
  %32 = load ptr, ptr %13, align 8, !tbaa !31
  %33 = load ptr, ptr %32, align 8, !tbaa !23
  %34 = getelementptr inbounds ptr, ptr %33, i64 2
  %35 = load ptr, ptr %34, align 8
  %36 = call noundef ptr %35(ptr noundef nonnull align 8 dereferenceable(16) %32) #4
  %37 = invoke noundef nonnull align 8 dereferenceable(32) ptr @_ZNSt7__cxx1112basic_stringIcSt11char_traitsIcESaIcEEaSEPKc(ptr noundef nonnull align 8 dereferenceable(32) @_ZL6cErrorB5cxx11, ptr noundef %36)
          to label %38 unwind label %39

38:                                               ; preds = %29
  store i64 -1, ptr %5, align 8
  call void @__cxa_end_catch()
  call void @llvm.lifetime.end.p0(i64 8, ptr %13) #4
  br label %45

39:                                               ; preds = %29
  %40 = landingpad { ptr, i32 }
          cleanup
  %41 = extractvalue { ptr, i32 } %40, 0
  store ptr %41, ptr %11, align 8
  %42 = extractvalue { ptr, i32 } %40, 1
  store i32 %42, ptr %12, align 4
  invoke void @__cxa_end_catch()
          to label %43 unwind label %52

43:                                               ; preds = %39
  call void @llvm.lifetime.end.p0(i64 8, ptr %13) #4
  br label %47

44:                                               ; No predecessors!
  unreachable

45:                                               ; preds = %38, %20
  %46 = load i64, ptr %5, align 8
  ret i64 %46

47:                                               ; preds = %43, %25
  %48 = load ptr, ptr %11, align 8
  %49 = load i32, ptr %12, align 4
  %50 = insertvalue { ptr, i32 } poison, ptr %48, 0
  %51 = insertvalue { ptr, i32 } %50, i32 %49, 1
  resume { ptr, i32 } %51

52:                                               ; preds = %39
  %53 = landingpad { ptr, i32 }
          catch ptr null
  %54 = extractvalue { ptr, i32 } %53, 0
  call void @__clang_call_terminate(ptr %54) #21
  unreachable
}