; Function Attrs: mustprogress uwtable
define noundef i64 @opencc_convert_utf8_to_buffer(ptr noundef nonnull readonly captures(none) %0, ptr noundef %1, i64 noundef %2, ptr noundef %3) local_unnamed_addr #3 personality ptr @__gxx_personality_v0 {
  %5 = invoke noundef i64 @_ZNK6opencc15SimpleConverter7ConvertEPKcmPc(ptr noundef nonnull align 8 dereferenceable(8) %0, ptr noundef %1, i64 noundef %2, ptr noundef %3)
          to label %22 unwind label %6

6:                                                ; preds = %4
  %7 = landingpad { ptr, i32 }
          cleanup
          catch ptr @_ZTISt13runtime_error
  %8 = extractvalue { ptr, i32 } %7, 1
  %9 = tail call i32 @llvm.eh.typeid.for.p0(ptr nonnull @_ZTISt13runtime_error) #21
  %10 = icmp eq i32 %8, %9
  br i1 %10, label %11, label %23

11:                                               ; preds = %6
  %12 = extractvalue { ptr, i32 } %7, 0
  %13 = tail call ptr @__cxa_begin_catch(ptr %12) #21
  %14 = load ptr, ptr %13, align 8, !tbaa !31
  %15 = getelementptr inbounds nuw i8, ptr %14, i64 16
  %16 = load ptr, ptr %15, align 8
  %17 = tail call noundef ptr %16(ptr noundef nonnull align 8 dereferenceable(16) %13) #21
  %18 = invoke noundef nonnull align 8 dereferenceable(32) ptr @_ZNSt7__cxx1112basic_stringIcSt11char_traitsIcESaIcEEaSEPKc(ptr noundef nonnull align 8 dereferenceable(32) @_ZL6cErrorB5cxx11, ptr noundef %17)
          to label %19 unwind label %20

19:                                               ; preds = %11
  tail call void @__cxa_end_catch()
  br label %22

20:                                               ; preds = %11
  %21 = landingpad { ptr, i32 }
          cleanup
  invoke void @__cxa_end_catch()
          to label %23 unwind label %24

22:                                               ; preds = %4, %19
  %.0 = phi i64 [ -1, %19 ], [ %5, %4 ]
  ret i64 %.0

23:                                               ; preds = %20, %6
  %.merged = phi { ptr, i32 } [ %7, %6 ], [ %21, %20 ]
  resume { ptr, i32 } %.merged

24:                                               ; preds = %20
  %25 = landingpad { ptr, i32 }
          catch ptr null
  %26 = extractvalue { ptr, i32 } %25, 0
  tail call void @__clang_call_terminate(ptr %26) #25
  unreachable
}